#include <math.h>
#include <stdio.h>
#include <stdlib.h>
#include <string.h>

void main()
{
	int n,i,sum=0;
	scanf("%d",&n);
	for(i=1;i<=n;i++)
	{
		if(i<10&&i%7!=0)
		sum+=i*i;
		else if(i>=10&&i%7!=0&&i%10!=7&&(i-i%10)%7!=0)
			sum+=i*i;
	}
	printf("%d",sum);
}