; ModuleID = '30/139.c'
source_filename = "30/139.c"
target datalayout = "e-m:e-p270:32:32-p271:32:32-p272:64:64-i64:64-f80:128-n8:16:32:64-S128"
target triple = "x86_64-pc-linux-gnu"

@.str = private unnamed_addr constant [3 x i8] c"%d\00", align 1

; Function Attrs: noinline nounwind uwtable
define dso_local void @main() #0 {
  %1 = alloca i32, align 4
  %2 = alloca i32, align 4
  %3 = alloca i32, align 4
  store i32 0, i32* %3, align 4
  %4 = call i32 (i8*, ...) @__isoc99_scanf(i8* getelementptr inbounds ([3 x i8], [3 x i8]* @.str, i64 0, i64 0), i32* %1)
  store i32 1, i32* %2, align 4
  br label %5

5:                                                ; preds = %48, %0
  %6 = load i32, i32* %2, align 4
  %7 = load i32, i32* %1, align 4
  %8 = icmp sle i32 %6, %7
  br i1 %8, label %9, label %51

9:                                                ; preds = %5
  %10 = load i32, i32* %2, align 4
  %11 = icmp slt i32 %10, 10
  br i1 %11, label %12, label %22

12:                                               ; preds = %9
  %13 = load i32, i32* %2, align 4
  %14 = srem i32 %13, 7
  %15 = icmp ne i32 %14, 0
  br i1 %15, label %16, label %22

16:                                               ; preds = %12
  %17 = load i32, i32* %2, align 4
  %18 = load i32, i32* %2, align 4
  %19 = mul nsw i32 %17, %18
  %20 = load i32, i32* %3, align 4
  %21 = add nsw i32 %20, %19
  store i32 %21, i32* %3, align 4
  br label %47

22:                                               ; preds = %12, %9
  %23 = load i32, i32* %2, align 4
  %24 = icmp sge i32 %23, 10
  br i1 %24, label %25, label %46

25:                                               ; preds = %22
  %26 = load i32, i32* %2, align 4
  %27 = srem i32 %26, 7
  %28 = icmp ne i32 %27, 0
  br i1 %28, label %29, label %46

29:                                               ; preds = %25
  %30 = load i32, i32* %2, align 4
  %31 = srem i32 %30, 10
  %32 = icmp ne i32 %31, 7
  br i1 %32, label %33, label %46

33:                                               ; preds = %29
  %34 = load i32, i32* %2, align 4
  %35 = load i32, i32* %2, align 4
  %36 = srem i32 %35, 10
  %37 = sub nsw i32 %34, %36
  %38 = srem i32 %37, 7
  %39 = icmp ne i32 %38, 0
  br i1 %39, label %40, label %46

40:                                               ; preds = %33
  %41 = load i32, i32* %2, align 4
  %42 = load i32, i32* %2, align 4
  %43 = mul nsw i32 %41, %42
  %44 = load i32, i32* %3, align 4
  %45 = add nsw i32 %44, %43
  store i32 %45, i32* %3, align 4
  br label %46

46:                                               ; preds = %40, %33, %29, %25, %22
  br label %47

47:                                               ; preds = %46, %16
  br label %48

48:                                               ; preds = %47
  %49 = load i32, i32* %2, align 4
  %50 = add nsw i32 %49, 1
  store i32 %50, i32* %2, align 4
  br label %5

51:                                               ; preds = %5
  %52 = load i32, i32* %3, align 4
  %53 = call i32 (i8*, ...) @printf(i8* getelementptr inbounds ([3 x i8], [3 x i8]* @.str, i64 0, i64 0), i32 %52)
  ret void
}

declare dso_local i32 @__isoc99_scanf(i8*, ...) #1

declare dso_local i32 @printf(i8*, ...) #1


!llvm.module.flags = !{!0}
!llvm.ident = !{!1}

!0 = !{i32 1, !"wchar_size", i32 4}
!1 = !{!"clang version 10.0.0-4ubuntu1 "}
