; ModuleID = 'source-C-CXX/29/139.c'
source_filename = "source-C-CXX/29/139.c"
target datalayout = "e-m:e-p270:32:32-p271:32:32-p272:64:64-i64:64-f80:128-n8:16:32:64-S128"
target triple = "x86_64-pc-linux-gnu"

@.str = private unnamed_addr constant [3 x i8] c"%d\00", align 1

; Function Attrs: nofree nounwind sspstrong uwtable
define dso_local void @main() local_unnamed_addr #0 {
  %1 = alloca i32, align 4
  %2 = bitcast i32* %1 to i8*
  call void @llvm.lifetime.start.p0i8(i64 4, i8* nonnull %2) #3
  %3 = call i32 (i8*, ...) @__isoc99_scanf(i8* getelementptr inbounds ([3 x i8], [3 x i8]* @.str, i64 0, i64 0), i32* nonnull %1)
  %4 = load i32, i32* %1, align 4, !tbaa !5
  %5 = icmp slt i32 %4, 1
  br i1 %5, label %33, label %6

6:                                                ; preds = %0, %29
  %7 = phi i32 [ %30, %29 ], [ 0, %0 ]
  %8 = phi i32 [ %31, %29 ], [ 1, %0 ]
  %9 = icmp ugt i32 %8, 9
  %10 = urem i32 %8, 7
  %11 = icmp eq i32 %10, 0
  %12 = or i1 %9, %11
  br i1 %12, label %16, label %13

13:                                               ; preds = %6
  %14 = mul nuw nsw i32 %8, %8
  %15 = add nsw i32 %7, %14
  br label %29

16:                                               ; preds = %6
  %17 = icmp ult i32 %8, 10
  %18 = or i1 %17, %11
  br i1 %18, label %29, label %19

19:                                               ; preds = %16
  %20 = urem i32 %8, 10
  %21 = icmp eq i32 %20, 7
  br i1 %21, label %29, label %22

22:                                               ; preds = %19
  %23 = sub nuw nsw i32 %8, %20
  %24 = srem i32 %23, 7
  %25 = icmp eq i32 %24, 0
  br i1 %25, label %29, label %26

26:                                               ; preds = %22
  %27 = mul nsw i32 %8, %8
  %28 = add nsw i32 %7, %27
  br label %29

29:                                               ; preds = %13, %26, %22, %19, %16
  %30 = phi i32 [ %15, %13 ], [ %28, %26 ], [ %7, %22 ], [ %7, %19 ], [ %7, %16 ]
  %31 = add nuw i32 %8, 1
  %32 = icmp eq i32 %8, %4
  br i1 %32, label %33, label %6, !llvm.loop !9

33:                                               ; preds = %29, %0
  %34 = phi i32 [ 0, %0 ], [ %30, %29 ]
  %35 = call i32 (i8*, ...) @printf(i8* nonnull dereferenceable(1) getelementptr inbounds ([3 x i8], [3 x i8]* @.str, i64 0, i64 0), i32 %34)
  call void @llvm.lifetime.end.p0i8(i64 4, i8* nonnull %2) #3
  ret void
}

; Function Attrs: argmemonly mustprogress nofree nosync nounwind willreturn
declare void @llvm.lifetime.start.p0i8(i64 immarg, i8* nocapture) #1

; Function Attrs: nofree nounwind
declare noundef i32 @__isoc99_scanf(i8* nocapture noundef readonly, ...) local_unnamed_addr #2

; Function Attrs: nofree nounwind
declare noundef i32 @printf(i8* nocapture noundef readonly, ...) local_unnamed_addr #2

; Function Attrs: argmemonly mustprogress nofree nosync nounwind willreturn
declare void @llvm.lifetime.end.p0i8(i64 immarg, i8* nocapture) #1


!llvm.module.flags = !{!0, !1, !2, !3}
!llvm.ident = !{!4}

!0 = !{i32 1, !"wchar_size", i32 4}
!1 = !{i32 7, !"PIC Level", i32 2}
!2 = !{i32 7, !"PIE Level", i32 2}
!3 = !{i32 7, !"uwtable", i32 1}
!4 = !{!"clang version 13.0.0"}
!5 = !{!6, !6, i64 0}
!6 = !{!"int", !7, i64 0}
!7 = !{!"omnipotent char", !8, i64 0}
!8 = !{!"Simple C/C++ TBAA"}
!9 = distinct !{!9, !10}
!10 = !{!"llvm.loop.mustprogress"}
